; Function Attrs: nounwind uwtable
define ptr @l_MonadExcept_orelse_x27___rarg___lambda__1(ptr noundef %0, i8 noundef zeroext %1, ptr noundef %2, ptr noundef %3) local_unnamed_addr #0 {
  %5 = icmp eq i8 %1, 0
  br i1 %5, label %6, label %36

6:                                                ; preds = %4
  %7 = ptrtoint ptr %2 to i64
  %8 = and i64 %7, 1
  %.not31 = icmp eq i64 %8, 0
  br i1 %.not31, label %9, label %lean_dec.exit17

9:                                                ; preds = %6
  %10 = load i32, ptr %2, align 4, !tbaa !4
  %11 = icmp sgt i32 %10, 1
  br i1 %11, label %12, label %14, !prof !13

12:                                               ; preds = %9
  %13 = add nsw i32 %10, -1
  store i32 %13, ptr %2, align 4, !tbaa !4
  br label %lean_dec.exit17

14:                                               ; preds = %9
  %.not.i = icmp eq i32 %10, 0
  br i1 %.not.i, label %lean_dec.exit17, label %15

15:                                               ; preds = %14
  tail call void @lean_dec_ref_cold(ptr noundef nonnull %2) #5
  br label %lean_dec.exit17

lean_dec.exit17:                                  ; preds = %15, %14, %12, %6
  %16 = getelementptr inbounds nuw i8, ptr %0, i64 8
  %17 = load ptr, ptr %16, align 8, !tbaa !9
  %18 = ptrtoint ptr %17 to i64
  %19 = and i64 %18, 1
  %.not32 = icmp eq i64 %19, 0
  br i1 %.not32, label %20, label %lean_inc.exit18

20:                                               ; preds = %lean_dec.exit17
  %.val.i = load i32, ptr %17, align 4, !tbaa !4
  %21 = icmp sgt i32 %.val.i, 0
  br i1 %21, label %22, label %24, !prof !13

22:                                               ; preds = %20
  %23 = add nuw i32 %.val.i, 1
  store i32 %23, ptr %17, align 4, !tbaa !4
  br label %lean_inc.exit18

24:                                               ; preds = %20
  %.not.i25 = icmp eq i32 %.val.i, 0
  br i1 %.not.i25, label %lean_inc.exit18, label %25

25:                                               ; preds = %24
  tail call void @lean_inc_ref_cold(ptr noundef nonnull %17) #5
  br label %lean_inc.exit18

lean_inc.exit18:                                  ; preds = %25, %24, %22, %lean_dec.exit17
  %26 = ptrtoint ptr %0 to i64
  %27 = and i64 %26, 1
  %.not33 = icmp eq i64 %27, 0
  br i1 %.not33, label %28, label %lean_dec.exit16

28:                                               ; preds = %lean_inc.exit18
  %29 = load i32, ptr %0, align 4, !tbaa !4
  %30 = icmp sgt i32 %29, 1
  br i1 %30, label %31, label %33, !prof !13

31:                                               ; preds = %28
  %32 = add nsw i32 %29, -1
  store i32 %32, ptr %0, align 4, !tbaa !4
  br label %lean_dec.exit16

33:                                               ; preds = %28
  %.not.i19 = icmp eq i32 %29, 0
  br i1 %.not.i19, label %lean_dec.exit16, label %34

34:                                               ; preds = %33
  tail call void @lean_dec_ref_cold(ptr noundef nonnull %0) #5
  br label %lean_dec.exit16

lean_dec.exit16:                                  ; preds = %34, %33, %31, %lean_inc.exit18
  %35 = tail call ptr @lean_apply_2(ptr noundef %17, ptr noundef nonnull inttoptr (i64 1 to ptr), ptr noundef %3) #5
  br label %66

36:                                               ; preds = %4
  %37 = ptrtoint ptr %3 to i64
  %38 = and i64 %37, 1
  %.not = icmp eq i64 %38, 0
  br i1 %.not, label %39, label %lean_dec.exit15

39:                                               ; preds = %36
  %40 = load i32, ptr %3, align 4, !tbaa !4
  %41 = icmp sgt i32 %40, 1
  br i1 %41, label %42, label %44, !prof !13

42:                                               ; preds = %39
  %43 = add nsw i32 %40, -1
  store i32 %43, ptr %3, align 4, !tbaa !4
  br label %lean_dec.exit15

44:                                               ; preds = %39
  %.not.i21 = icmp eq i32 %40, 0
  br i1 %.not.i21, label %lean_dec.exit15, label %45

45:                                               ; preds = %44
  tail call void @lean_dec_ref_cold(ptr noundef nonnull %3) #5
  br label %lean_dec.exit15

lean_dec.exit15:                                  ; preds = %45, %44, %42, %36
  %46 = getelementptr inbounds nuw i8, ptr %0, i64 8
  %47 = load ptr, ptr %46, align 8, !tbaa !9
  %48 = ptrtoint ptr %47 to i64
  %49 = and i64 %48, 1
  %.not29 = icmp eq i64 %49, 0
  br i1 %.not29, label %50, label %lean_inc.exit

50:                                               ; preds = %lean_dec.exit15
  %.val.i26 = load i32, ptr %47, align 4, !tbaa !4
  %51 = icmp sgt i32 %.val.i26, 0
  br i1 %51, label %52, label %54, !prof !13

52:                                               ; preds = %50
  %53 = add nuw i32 %.val.i26, 1
  store i32 %53, ptr %47, align 4, !tbaa !4
  br label %lean_inc.exit

54:                                               ; preds = %50
  %.not.i27 = icmp eq i32 %.val.i26, 0
  br i1 %.not.i27, label %lean_inc.exit, label %55

55:                                               ; preds = %54
  tail call void @lean_inc_ref_cold(ptr noundef nonnull %47) #5
  br label %lean_inc.exit

lean_inc.exit:                                    ; preds = %55, %54, %52, %lean_dec.exit15
  %56 = ptrtoint ptr %0 to i64
  %57 = and i64 %56, 1
  %.not30 = icmp eq i64 %57, 0
  br i1 %.not30, label %58, label %lean_dec.exit

58:                                               ; preds = %lean_inc.exit
  %59 = load i32, ptr %0, align 4, !tbaa !4
  %60 = icmp sgt i32 %59, 1
  br i1 %60, label %61, label %63, !prof !13

61:                                               ; preds = %58
  %62 = add nsw i32 %59, -1
  store i32 %62, ptr %0, align 4, !tbaa !4
  br label %lean_dec.exit

63:                                               ; preds = %58
  %.not.i23 = icmp eq i32 %59, 0
  br i1 %.not.i23, label %lean_dec.exit, label %64

64:                                               ; preds = %63
  tail call void @lean_dec_ref_cold(ptr noundef nonnull %0) #5
  br label %lean_dec.exit

lean_dec.exit:                                    ; preds = %64, %63, %61, %lean_inc.exit
  %65 = tail call ptr @lean_apply_2(ptr noundef %47, ptr noundef nonnull inttoptr (i64 1 to ptr), ptr noundef %2) #5
  br label %66

66:                                               ; preds = %lean_dec.exit, %lean_dec.exit16
  %.0 = phi ptr [ %35, %lean_dec.exit16 ], [ %65, %lean_dec.exit ]
  ret ptr %.0
}